target datalayout = "e-m:e-p270:32:32-p271:32:32-p272:64:64-i64:64-i128:128-f80:128-n8:16:32:64-S128"
target triple = "x86_64-pc-linux-gnu"

%struct.pm_node = type { i16, i16, i32, %struct.pm_location_t }
%struct.pm_location_t = type { ptr, ptr }
%struct.pm_string_t = type { ptr, i64, i32 }
%struct.pm_source_file_node = type { %struct.pm_node, %struct.pm_string_t }
%struct.pm_string_node = type { %struct.pm_node, %struct.pm_location_t, %struct.pm_location_t, %struct.pm_location_t, %struct.pm_string_t }
%struct.pm_symbol_node = type { %struct.pm_node, %struct.pm_location_t, %struct.pm_location_t, %struct.pm_location_t, %struct.pm_string_t }

; Function Attrs: nounwind sspstrong uwtable
define internal ptr @pm_string_value(ptr noundef %0) #0 {
  %2 = alloca ptr, align 8
  %3 = alloca ptr, align 8
  store ptr %0, ptr %3, align 8, !tbaa !13
  %4 = load ptr, ptr %3, align 8, !tbaa !13
  %5 = getelementptr inbounds nuw %struct.pm_node, ptr %4, i32 0, i32 0
  %6 = load i16, ptr %5, align 8, !tbaa !17
  %7 = zext i16 %6 to i32
  switch i32 %7, label %17 [
    i32 141, label %8
    i32 137, label %11
    i32 143, label %14
  ]

8:                                                ; preds = %1
  %9 = load ptr, ptr %3, align 8, !tbaa !13
  %10 = getelementptr inbounds nuw %struct.pm_string_node, ptr %9, i32 0, i32 4
  store ptr %10, ptr %2, align 8
  br label %18

11:                                               ; preds = %1
  %12 = load ptr, ptr %3, align 8, !tbaa !13
  %13 = getelementptr inbounds nuw %struct.pm_source_file_node, ptr %12, i32 0, i32 1
  store ptr %13, ptr %2, align 8
  br label %18

14:                                               ; preds = %1
  %15 = load ptr, ptr %3, align 8, !tbaa !13
  %16 = getelementptr inbounds nuw %struct.pm_symbol_node, ptr %15, i32 0, i32 4
  store ptr %16, ptr %2, align 8
  br label %18

17:                                               ; preds = %1
  store ptr null, ptr %2, align 8
  br label %18

18:                                               ; preds = %17, %14, %11, %8
  %19 = load ptr, ptr %2, align 8
  ret ptr %19
}

; Function Attrs: nounwind sspstrong uwtable
define internal i32 @pm_compare_string_nodes(ptr noundef %0, ptr noundef %1, ptr noundef %2) #0 {
  %4 = alloca ptr, align 8
  %5 = alloca ptr, align 8
  %6 = alloca ptr, align 8
  %7 = alloca ptr, align 8
  %8 = alloca ptr, align 8
  store ptr %0, ptr %4, align 8, !tbaa !7
  store ptr %1, ptr %5, align 8, !tbaa !13
  store ptr %2, ptr %6, align 8, !tbaa !13
  call void @llvm.lifetime.start.p0(i64 8, ptr %7) #9
  %9 = load ptr, ptr %5, align 8, !tbaa !13
  %10 = call ptr @pm_string_value(ptr noundef %9)
  store ptr %10, ptr %7, align 8, !tbaa !7
  call void @llvm.lifetime.start.p0(i64 8, ptr %8) #9
  %11 = load ptr, ptr %6, align 8, !tbaa !13
  %12 = call ptr @pm_string_value(ptr noundef %11)
  store ptr %12, ptr %8, align 8, !tbaa !7
  %13 = load ptr, ptr %7, align 8, !tbaa !7
  %14 = load ptr, ptr %8, align 8, !tbaa !7
  %15 = call i32 @pm_string_compare(ptr noundef %13, ptr noundef %14)
  call void @llvm.lifetime.end.p0(i64 8, ptr %8) #9
  call void @llvm.lifetime.end.p0(i64 8, ptr %7) #9
  ret i32 %15
}