; Function Attrs: nounwind sspstrong uwtable
define internal i32 @pm_compare_string_nodes(ptr readnone captures(none) %0, ptr noundef %1, ptr noundef %2) #0 {
  %4 = load i16, ptr %1, align 8, !tbaa !7
  switch i16 %4, label %pm_string_value.exit [
    i16 141, label %5
    i16 137, label %7
    i16 143, label %9
  ]

5:                                                ; preds = %3
  %6 = getelementptr inbounds nuw i8, ptr %1, i64 72
  br label %pm_string_value.exit

7:                                                ; preds = %3
  %8 = getelementptr inbounds nuw i8, ptr %1, i64 24
  br label %pm_string_value.exit

9:                                                ; preds = %3
  %10 = getelementptr inbounds nuw i8, ptr %1, i64 72
  br label %pm_string_value.exit

pm_string_value.exit:                             ; preds = %3, %5, %7, %9
  %.0.i = phi ptr [ %10, %9 ], [ %8, %7 ], [ %6, %5 ], [ null, %3 ]
  %11 = load i16, ptr %2, align 8, !tbaa !7
  switch i16 %11, label %pm_string_value.exit5 [
    i16 141, label %12
    i16 137, label %14
    i16 143, label %16
  ]

12:                                               ; preds = %pm_string_value.exit
  %13 = getelementptr inbounds nuw i8, ptr %2, i64 72
  br label %pm_string_value.exit5

14:                                               ; preds = %pm_string_value.exit
  %15 = getelementptr inbounds nuw i8, ptr %2, i64 24
  br label %pm_string_value.exit5

16:                                               ; preds = %pm_string_value.exit
  %17 = getelementptr inbounds nuw i8, ptr %2, i64 72
  br label %pm_string_value.exit5

pm_string_value.exit5:                            ; preds = %pm_string_value.exit, %12, %14, %16
  %.0.i4 = phi ptr [ %17, %16 ], [ %15, %14 ], [ %13, %12 ], [ null, %pm_string_value.exit ]
  %18 = tail call i32 @pm_string_compare(ptr noundef %.0.i, ptr noundef %.0.i4) #9
  ret i32 %18
}